target datalayout = "e-m:e-p270:32:32-p271:32:32-p272:64:64-i64:64-i128:128-f80:128-n8:16:32:64-S128"
target triple = "x86_64-pc-linux-gnu"

%struct.strbuf = type { i64, i64, ptr }
%struct.__va_list_tag = type { i32, i32, ptr, ptr }

@strbuf_slopbuf = dso_local global [1 x i8] zeroinitializer, align 1
@.str = private unnamed_addr constant [36 x i8] c"you want to use way too much memory\00", align 1
@.str.1 = private unnamed_addr constant [45 x i8] c"`pos' is too far after the end of the buffer\00", align 1
@.str.3 = private unnamed_addr constant [29 x i8] c"unable to format message: %s\00", align 1
@.str.4 = private unnamed_addr constant [9 x i8] c"strbuf.c\00", align 1
@.str.5 = private unnamed_addr constant [56 x i8] c"your vsnprintf is broken (returns inconsistent lengths)\00", align 1
@.str.27 = private unnamed_addr constant [27 x i8] c"size_t overflow: %lu * %lu\00", align 1
@.str.28 = private unnamed_addr constant [11 x i8] c"./strbuf.h\00", align 1
@.str.29 = private unnamed_addr constant [30 x i8] c"strbuf_setlen() beyond buffer\00", align 1

; Function Attrs: inlinehint nounwind uwtable
define internal i64 @st_mult(i64 noundef %0, i64 noundef %1) #1 {
  %3 = alloca i64, align 8
  %4 = alloca i64, align 8
  store i64 %0, ptr %3, align 8, !tbaa !12
  store i64 %1, ptr %4, align 8, !tbaa !12
  %5 = load i64, ptr %3, align 8, !tbaa !12
  %6 = icmp ne i64 %5, 0
  br i1 %6, label %7, label %15

7:                                                ; preds = %2
  %8 = load i64, ptr %4, align 8, !tbaa !12
  %9 = load i64, ptr %3, align 8, !tbaa !12
  %10 = udiv i64 -1, %9
  %11 = icmp ugt i64 %8, %10
  br i1 %11, label %12, label %15

12:                                               ; preds = %7
  %13 = load i64, ptr %3, align 8, !tbaa !12
  %14 = load i64, ptr %4, align 8, !tbaa !12
  call void (ptr, ...) @die(ptr noundef @.str.27, i64 noundef %13, i64 noundef %14) #12
  unreachable

15:                                               ; preds = %7, %2
  %16 = load i64, ptr %3, align 8, !tbaa !12
  %17 = load i64, ptr %4, align 8, !tbaa !12
  %18 = mul i64 %16, %17
  ret i64 %18
}

; Function Attrs: inlinehint nounwind uwtable
define internal void @strbuf_setlen(ptr noundef %0, i64 noundef %1) #1 {
  %3 = alloca ptr, align 8
  %4 = alloca i64, align 8
  store ptr %0, ptr %3, align 8, !tbaa !18
  store i64 %1, ptr %4, align 8, !tbaa !12
  %5 = load i64, ptr %4, align 8, !tbaa !12
  %6 = load ptr, ptr %3, align 8, !tbaa !18
  %7 = getelementptr inbounds nuw %struct.strbuf, ptr %6, i32 0, i32 0
  %8 = load i64, ptr %7, align 8, !tbaa !20
  %9 = icmp ne i64 %8, 0
  br i1 %9, label %10, label %15

10:                                               ; preds = %2
  %11 = load ptr, ptr %3, align 8, !tbaa !18
  %12 = getelementptr inbounds nuw %struct.strbuf, ptr %11, i32 0, i32 0
  %13 = load i64, ptr %12, align 8, !tbaa !20
  %14 = sub i64 %13, 1
  br label %16

15:                                               ; preds = %2
  br label %16

16:                                               ; preds = %15, %10
  %17 = phi i64 [ %14, %10 ], [ 0, %15 ]
  %18 = icmp ugt i64 %5, %17
  br i1 %18, label %19, label %20

19:                                               ; preds = %16
  call void (ptr, i32, ptr, ...) @BUG_fl(ptr noundef @.str.28, i32 noundef 167, ptr noundef @.str.29) #12
  unreachable

20:                                               ; preds = %16
  %21 = load i64, ptr %4, align 8, !tbaa !12
  %22 = load ptr, ptr %3, align 8, !tbaa !18
  %23 = getelementptr inbounds nuw %struct.strbuf, ptr %22, i32 0, i32 1
  store i64 %21, ptr %23, align 8, !tbaa !22
  %24 = load ptr, ptr %3, align 8, !tbaa !18
  %25 = getelementptr inbounds nuw %struct.strbuf, ptr %24, i32 0, i32 2
  %26 = load ptr, ptr %25, align 8, !tbaa !23
  %27 = icmp ne ptr %26, @strbuf_slopbuf
  br i1 %27, label %28, label %34

28:                                               ; preds = %20
  %29 = load ptr, ptr %3, align 8, !tbaa !18
  %30 = getelementptr inbounds nuw %struct.strbuf, ptr %29, i32 0, i32 2
  %31 = load ptr, ptr %30, align 8, !tbaa !23
  %32 = load i64, ptr %4, align 8, !tbaa !12
  %33 = getelementptr inbounds nuw i8, ptr %31, i64 %32
  store i8 0, ptr %33, align 1, !tbaa !9
  br label %35

34:                                               ; preds = %20
  br label %35

35:                                               ; preds = %34, %28
  ret void
}

; Function Attrs: nounwind uwtable
define dso_local void @strbuf_grow(ptr noundef %0, i64 noundef %1) #0 {
  %3 = alloca ptr, align 8
  %4 = alloca i64, align 8
  %5 = alloca i32, align 4
  store ptr %0, ptr %3, align 8, !tbaa !18
  store i64 %1, ptr %4, align 8, !tbaa !12
  call void @llvm.lifetime.start.p0(i64 4, ptr %5) #11
  %6 = load ptr, ptr %3, align 8, !tbaa !18
  %7 = getelementptr inbounds nuw %struct.strbuf, ptr %6, i32 0, i32 0
  %8 = load i64, ptr %7, align 8, !tbaa !20
  %9 = icmp ne i64 %8, 0
  %10 = xor i1 %9, true
  %11 = zext i1 %10 to i32
  store i32 %11, ptr %5, align 4, !tbaa !10
  %12 = load i64, ptr %4, align 8, !tbaa !12
  %13 = sub i64 -1, %12
  %14 = icmp ugt i64 1, %13
  br i1 %14, label %23, label %15

15:                                               ; preds = %2
  %16 = load i64, ptr %4, align 8, !tbaa !12
  %17 = add i64 %16, 1
  %18 = load ptr, ptr %3, align 8, !tbaa !18
  %19 = getelementptr inbounds nuw %struct.strbuf, ptr %18, i32 0, i32 1
  %20 = load i64, ptr %19, align 8, !tbaa !22
  %21 = sub i64 -1, %20
  %22 = icmp ugt i64 %17, %21
  br i1 %22, label %23, label %24

23:                                               ; preds = %15, %2
  call void (ptr, ...) @die(ptr noundef @.str) #12
  unreachable

24:                                               ; preds = %15
  %25 = load i32, ptr %5, align 4, !tbaa !10
  %26 = icmp ne i32 %25, 0
  br i1 %26, label %27, label %30

27:                                               ; preds = %24
  %28 = load ptr, ptr %3, align 8, !tbaa !18
  %29 = getelementptr inbounds nuw %struct.strbuf, ptr %28, i32 0, i32 2
  store ptr null, ptr %29, align 8, !tbaa !23
  br label %30

30:                                               ; preds = %27, %24
  br label %31

31:                                               ; preds = %30
  %32 = load ptr, ptr %3, align 8, !tbaa !18
  %33 = getelementptr inbounds nuw %struct.strbuf, ptr %32, i32 0, i32 1
  %34 = load i64, ptr %33, align 8, !tbaa !22
  %35 = load i64, ptr %4, align 8, !tbaa !12
  %36 = add i64 %34, %35
  %37 = add i64 %36, 1
  %38 = load ptr, ptr %3, align 8, !tbaa !18
  %39 = getelementptr inbounds nuw %struct.strbuf, ptr %38, i32 0, i32 0
  %40 = load i64, ptr %39, align 8, !tbaa !20
  %41 = icmp ugt i64 %37, %40
  br i1 %41, label %42, label %85

42:                                               ; preds = %31
  %43 = load ptr, ptr %3, align 8, !tbaa !18
  %44 = getelementptr inbounds nuw %struct.strbuf, ptr %43, i32 0, i32 0
  %45 = load i64, ptr %44, align 8, !tbaa !20
  %46 = add i64 %45, 16
  %47 = mul i64 %46, 3
  %48 = udiv i64 %47, 2
  %49 = load ptr, ptr %3, align 8, !tbaa !18
  %50 = getelementptr inbounds nuw %struct.strbuf, ptr %49, i32 0, i32 1
  %51 = load i64, ptr %50, align 8, !tbaa !22
  %52 = load i64, ptr %4, align 8, !tbaa !12
  %53 = add i64 %51, %52
  %54 = add i64 %53, 1
  %55 = icmp ult i64 %48, %54
  br i1 %55, label %56, label %65

56:                                               ; preds = %42
  %57 = load ptr, ptr %3, align 8, !tbaa !18
  %58 = getelementptr inbounds nuw %struct.strbuf, ptr %57, i32 0, i32 1
  %59 = load i64, ptr %58, align 8, !tbaa !22
  %60 = load i64, ptr %4, align 8, !tbaa !12
  %61 = add i64 %59, %60
  %62 = add i64 %61, 1
  %63 = load ptr, ptr %3, align 8, !tbaa !18
  %64 = getelementptr inbounds nuw %struct.strbuf, ptr %63, i32 0, i32 0
  store i64 %62, ptr %64, align 8, !tbaa !20
  br label %74

65:                                               ; preds = %42
  %66 = load ptr, ptr %3, align 8, !tbaa !18
  %67 = getelementptr inbounds nuw %struct.strbuf, ptr %66, i32 0, i32 0
  %68 = load i64, ptr %67, align 8, !tbaa !20
  %69 = add i64 %68, 16
  %70 = mul i64 %69, 3
  %71 = udiv i64 %70, 2
  %72 = load ptr, ptr %3, align 8, !tbaa !18
  %73 = getelementptr inbounds nuw %struct.strbuf, ptr %72, i32 0, i32 0
  store i64 %71, ptr %73, align 8, !tbaa !20
  br label %74

74:                                               ; preds = %65, %56
  %75 = load ptr, ptr %3, align 8, !tbaa !18
  %76 = getelementptr inbounds nuw %struct.strbuf, ptr %75, i32 0, i32 2
  %77 = load ptr, ptr %76, align 8, !tbaa !23
  %78 = load ptr, ptr %3, align 8, !tbaa !18
  %79 = getelementptr inbounds nuw %struct.strbuf, ptr %78, i32 0, i32 0
  %80 = load i64, ptr %79, align 8, !tbaa !20
  %81 = call i64 @st_mult(i64 noundef 1, i64 noundef %80)
  %82 = call ptr @xrealloc(ptr noundef %77, i64 noundef %81)
  %83 = load ptr, ptr %3, align 8, !tbaa !18
  %84 = getelementptr inbounds nuw %struct.strbuf, ptr %83, i32 0, i32 2
  store ptr %82, ptr %84, align 8, !tbaa !23
  br label %85

85:                                               ; preds = %74, %31
  br label %86

86:                                               ; preds = %85
  br label %87

87:                                               ; preds = %86
  %88 = load i32, ptr %5, align 4, !tbaa !10
  %89 = icmp ne i32 %88, 0
  br i1 %89, label %90, label %95

90:                                               ; preds = %87
  %91 = load ptr, ptr %3, align 8, !tbaa !18
  %92 = getelementptr inbounds nuw %struct.strbuf, ptr %91, i32 0, i32 2
  %93 = load ptr, ptr %92, align 8, !tbaa !23
  %94 = getelementptr inbounds i8, ptr %93, i64 0
  store i8 0, ptr %94, align 1, !tbaa !9
  br label %95

95:                                               ; preds = %90, %87
  call void @llvm.lifetime.end.p0(i64 4, ptr %5) #11
  ret void
}

; Function Attrs: nounwind uwtable
define dso_local void @strbuf_vinsertf(ptr noundef %0, i64 noundef %1, ptr noundef %2, ptr noundef %3) #0 {
  %5 = alloca ptr, align 8
  %6 = alloca i64, align 8
  %7 = alloca ptr, align 8
  %8 = alloca ptr, align 8
  %9 = alloca i32, align 4
  %10 = alloca i32, align 4
  %11 = alloca i8, align 1
  %12 = alloca [1 x %struct.__va_list_tag], align 16
  %13 = alloca i32, align 4
  store ptr %0, ptr %5, align 8, !tbaa !18
  store i64 %1, ptr %6, align 8, !tbaa !12
  store ptr %2, ptr %7, align 8, !tbaa !4
  store ptr %3, ptr %8, align 8, !tbaa !45
  call void @llvm.lifetime.start.p0(i64 4, ptr %9) #11
  call void @llvm.lifetime.start.p0(i64 4, ptr %10) #11
  call void @llvm.lifetime.start.p0(i64 1, ptr %11) #11
  call void @llvm.lifetime.start.p0(i64 24, ptr %12) #11
  %14 = load i64, ptr %6, align 8, !tbaa !12
  %15 = load ptr, ptr %5, align 8, !tbaa !18
  %16 = getelementptr inbounds nuw %struct.strbuf, ptr %15, i32 0, i32 1
  %17 = load i64, ptr %16, align 8, !tbaa !22
  %18 = icmp ugt i64 %14, %17
  br i1 %18, label %19, label %20

19:                                               ; preds = %4
  call void (ptr, ...) @die(ptr noundef @.str.1) #12
  unreachable

20:                                               ; preds = %4
  %21 = getelementptr inbounds [1 x %struct.__va_list_tag], ptr %12, i64 0, i64 0
  %22 = load ptr, ptr %8, align 8, !tbaa !45
  call void @llvm.va_copy.p0(ptr %21, ptr %22)
  %23 = load ptr, ptr %5, align 8, !tbaa !18
  %24 = getelementptr inbounds nuw %struct.strbuf, ptr %23, i32 0, i32 2
  %25 = load ptr, ptr %24, align 8, !tbaa !23
  %26 = load ptr, ptr %5, align 8, !tbaa !18
  %27 = getelementptr inbounds nuw %struct.strbuf, ptr %26, i32 0, i32 1
  %28 = load i64, ptr %27, align 8, !tbaa !22
  %29 = getelementptr inbounds nuw i8, ptr %25, i64 %28
  %30 = load ptr, ptr %7, align 8, !tbaa !4
  %31 = getelementptr inbounds [1 x %struct.__va_list_tag], ptr %12, i64 0, i64 0
  %32 = call i32 @vsnprintf(ptr noundef %29, i64 noundef 0, ptr noundef %30, ptr noundef %31) #11
  store i32 %32, ptr %9, align 4, !tbaa !10
  %33 = getelementptr inbounds [1 x %struct.__va_list_tag], ptr %12, i64 0, i64 0
  call void @llvm.va_end.p0(ptr %33)
  %34 = load i32, ptr %9, align 4, !tbaa !10
  %35 = icmp slt i32 %34, 0
  br i1 %35, label %36, label %39

36:                                               ; preds = %20
  %37 = call ptr @_(ptr noundef @.str.3)
  %38 = load ptr, ptr %7, align 8, !tbaa !4
  call void (ptr, ...) @die(ptr noundef %37, ptr noundef %38) #12
  unreachable

39:                                               ; preds = %20
  %40 = load i32, ptr %9, align 4, !tbaa !10
  %41 = icmp ne i32 %40, 0
  br i1 %41, label %43, label %42

42:                                               ; preds = %39
  store i32 1, ptr %13, align 4
  br label %115

43:                                               ; preds = %39
  %44 = load i32, ptr %9, align 4, !tbaa !10
  %45 = sext i32 %44 to i64
  %46 = load ptr, ptr %5, align 8, !tbaa !18
  %47 = getelementptr inbounds nuw %struct.strbuf, ptr %46, i32 0, i32 1
  %48 = load i64, ptr %47, align 8, !tbaa !22
  %49 = sub i64 -1, %48
  %50 = icmp ugt i64 %45, %49
  br i1 %50, label %51, label %52

51:                                               ; preds = %43
  call void (ptr, ...) @die(ptr noundef @.str) #12
  unreachable

52:                                               ; preds = %43
  %53 = load ptr, ptr %5, align 8, !tbaa !18
  %54 = load i32, ptr %9, align 4, !tbaa !10
  %55 = sext i32 %54 to i64
  call void @strbuf_grow(ptr noundef %53, i64 noundef %55)
  %56 = load ptr, ptr %5, align 8, !tbaa !18
  %57 = getelementptr inbounds nuw %struct.strbuf, ptr %56, i32 0, i32 2
  %58 = load ptr, ptr %57, align 8, !tbaa !23
  %59 = load i64, ptr %6, align 8, !tbaa !12
  %60 = getelementptr inbounds nuw i8, ptr %58, i64 %59
  %61 = load i32, ptr %9, align 4, !tbaa !10
  %62 = sext i32 %61 to i64
  %63 = getelementptr inbounds i8, ptr %60, i64 %62
  %64 = load ptr, ptr %5, align 8, !tbaa !18
  %65 = getelementptr inbounds nuw %struct.strbuf, ptr %64, i32 0, i32 2
  %66 = load ptr, ptr %65, align 8, !tbaa !23
  %67 = load i64, ptr %6, align 8, !tbaa !12
  %68 = getelementptr inbounds nuw i8, ptr %66, i64 %67
  %69 = load ptr, ptr %5, align 8, !tbaa !18
  %70 = getelementptr inbounds nuw %struct.strbuf, ptr %69, i32 0, i32 1
  %71 = load i64, ptr %70, align 8, !tbaa !22
  %72 = load i64, ptr %6, align 8, !tbaa !12
  %73 = sub i64 %71, %72
  call void @llvm.memmove.p0.p0.i64(ptr align 1 %63, ptr align 1 %68, i64 %73, i1 false)
  %74 = load ptr, ptr %5, align 8, !tbaa !18
  %75 = getelementptr inbounds nuw %struct.strbuf, ptr %74, i32 0, i32 2
  %76 = load ptr, ptr %75, align 8, !tbaa !23
  %77 = load i64, ptr %6, align 8, !tbaa !12
  %78 = load i32, ptr %9, align 4, !tbaa !10
  %79 = sext i32 %78 to i64
  %80 = add i64 %77, %79
  %81 = getelementptr inbounds nuw i8, ptr %76, i64 %80
  %82 = load i8, ptr %81, align 1, !tbaa !9
  store i8 %82, ptr %11, align 1, !tbaa !9
  %83 = load ptr, ptr %5, align 8, !tbaa !18
  %84 = getelementptr inbounds nuw %struct.strbuf, ptr %83, i32 0, i32 2
  %85 = load ptr, ptr %84, align 8, !tbaa !23
  %86 = load i64, ptr %6, align 8, !tbaa !12
  %87 = getelementptr inbounds nuw i8, ptr %85, i64 %86
  %88 = load i32, ptr %9, align 4, !tbaa !10
  %89 = add nsw i32 %88, 1
  %90 = sext i32 %89 to i64
  %91 = load ptr, ptr %7, align 8, !tbaa !4
  %92 = load ptr, ptr %8, align 8, !tbaa !45
  %93 = call i32 @vsnprintf(ptr noundef %87, i64 noundef %90, ptr noundef %91, ptr noundef %92) #11
  store i32 %93, ptr %10, align 4, !tbaa !10
  %94 = load i8, ptr %11, align 1, !tbaa !9
  %95 = load ptr, ptr %5, align 8, !tbaa !18
  %96 = getelementptr inbounds nuw %struct.strbuf, ptr %95, i32 0, i32 2
  %97 = load ptr, ptr %96, align 8, !tbaa !23
  %98 = load i64, ptr %6, align 8, !tbaa !12
  %99 = load i32, ptr %9, align 4, !tbaa !10
  %100 = sext i32 %99 to i64
  %101 = add i64 %98, %100
  %102 = getelementptr inbounds nuw i8, ptr %97, i64 %101
  store i8 %94, ptr %102, align 1, !tbaa !9
  %103 = load i32, ptr %10, align 4, !tbaa !10
  %104 = load i32, ptr %9, align 4, !tbaa !10
  %105 = icmp ne i32 %103, %104
  br i1 %105, label %106, label %107

106:                                              ; preds = %52
  call void (ptr, i32, ptr, ...) @BUG_fl(ptr noundef @.str.4, i32 noundef 294, ptr noundef @.str.5) #12
  unreachable

107:                                              ; preds = %52
  %108 = load ptr, ptr %5, align 8, !tbaa !18
  %109 = load ptr, ptr %5, align 8, !tbaa !18
  %110 = getelementptr inbounds nuw %struct.strbuf, ptr %109, i32 0, i32 1
  %111 = load i64, ptr %110, align 8, !tbaa !22
  %112 = load i32, ptr %9, align 4, !tbaa !10
  %113 = sext i32 %112 to i64
  %114 = add i64 %111, %113
  call void @strbuf_setlen(ptr noundef %108, i64 noundef %114)
  store i32 0, ptr %13, align 4
  br label %115

115:                                              ; preds = %107, %42
  call void @llvm.lifetime.end.p0(i64 24, ptr %12) #11
  call void @llvm.lifetime.end.p0(i64 1, ptr %11) #11
  call void @llvm.lifetime.end.p0(i64 4, ptr %10) #11
  call void @llvm.lifetime.end.p0(i64 4, ptr %9) #11
  %116 = load i32, ptr %13, align 4
  switch i32 %116, label %118 [
    i32 0, label %117
    i32 1, label %117
  ]

117:                                              ; preds = %115, %115
  ret void

118:                                              ; preds = %115
  unreachable
}