; Function Attrs: nounwind uwtable
define dso_local void @strbuf_vinsertf(ptr noundef captures(none) %0, i64 noundef %1, ptr noundef %2, ptr noundef %3) local_unnamed_addr #3 {
  %5 = alloca [1 x %struct.__va_list_tag], align 16
  call void @llvm.lifetime.start.p0(i64 24, ptr nonnull %5) #25
  %6 = getelementptr inbounds nuw i8, ptr %0, i64 8
  %7 = load i64, ptr %6, align 8, !tbaa !16
  %8 = icmp ugt i64 %1, %7
  br i1 %8, label %9, label %10

9:                                                ; preds = %4
  tail call void (ptr, ...) @die(ptr noundef nonnull @.str.1) #24
  unreachable

10:                                               ; preds = %4
  call void @llvm.va_copy.p0(ptr nonnull %5, ptr %3)
  %11 = getelementptr inbounds nuw i8, ptr %0, i64 16
  %12 = load ptr, ptr %11, align 8, !tbaa !12
  %13 = load i64, ptr %6, align 8, !tbaa !16
  %14 = getelementptr inbounds nuw i8, ptr %12, i64 %13
  %15 = call i32 @vsnprintf(ptr noundef %14, i64 noundef 0, ptr noundef %2, ptr noundef nonnull %5) #25
  call void @llvm.va_end.p0(ptr nonnull %5)
  %16 = icmp slt i32 %15, 0
  br i1 %16, label %17, label %19

17:                                               ; preds = %10
  %18 = call fastcc ptr @_(ptr noundef nonnull @.str.3)
  call void (ptr, ...) @die(ptr noundef %18, ptr noundef %2) #24
  unreachable

19:                                               ; preds = %10
  %.not = icmp eq i32 %15, 0
  br i1 %.not, label %strbuf_setlen.exit, label %20

20:                                               ; preds = %19
  %21 = zext nneg i32 %15 to i64
  %22 = load i64, ptr %6, align 8, !tbaa !16
  %23 = xor i64 %22, -1
  %24 = icmp ugt i64 %21, %23
  br i1 %24, label %25, label %26

25:                                               ; preds = %20
  call void (ptr, ...) @die(ptr noundef nonnull @.str) #24
  unreachable

26:                                               ; preds = %20
  %27 = load i64, ptr %0, align 8, !tbaa !15
  %.not.i = icmp eq i64 %27, 0
  %28 = sub nuw nsw i64 -2, %21
  %29 = icmp ult i64 %28, %22
  br i1 %29, label %30, label %31

30:                                               ; preds = %26
  call void (ptr, ...) @die(ptr noundef nonnull @.str) #24
  unreachable

31:                                               ; preds = %26
  br i1 %.not.i, label %32, label %._crit_edge

._crit_edge:                                      ; preds = %31
  %.pre39.pre.pre = load ptr, ptr %11, align 8, !tbaa !12
  br label %33

32:                                               ; preds = %31
  store ptr null, ptr %11, align 8, !tbaa !12
  br label %33

33:                                               ; preds = %._crit_edge, %32
  %.pre39.pre = phi ptr [ %.pre39.pre.pre, %._crit_edge ], [ null, %32 ]
  %34 = add nuw nsw i64 %21, 1
  %35 = add i64 %34, %22
  %36 = icmp ugt i64 %35, %27
  br i1 %36, label %st_mult.exit.i, label %41

st_mult.exit.i:                                   ; preds = %33
  %37 = mul i64 %27, 3
  %38 = add i64 %37, 48
  %39 = lshr i64 %38, 1
  %..i = call i64 @llvm.umax.i64(i64 %39, i64 %35)
  store i64 %..i, ptr %0, align 8, !tbaa !15
  %40 = call ptr @xrealloc(ptr noundef %.pre39.pre, i64 noundef %..i) #25
  store ptr %40, ptr %11, align 8, !tbaa !12
  br label %41

41:                                               ; preds = %st_mult.exit.i, %33
  %.pre39 = phi ptr [ %40, %st_mult.exit.i ], [ %.pre39.pre, %33 ]
  br i1 %.not.i, label %42, label %strbuf_grow.exit

42:                                               ; preds = %41
  store i8 0, ptr %.pre39, align 1, !tbaa !4
  %.pre = load ptr, ptr %11, align 8, !tbaa !12
  br label %strbuf_grow.exit

strbuf_grow.exit:                                 ; preds = %41, %42
  %43 = phi ptr [ %.pre39, %41 ], [ %.pre, %42 ]
  %44 = getelementptr inbounds nuw i8, ptr %43, i64 %1
  %45 = getelementptr inbounds nuw i8, ptr %44, i64 %21
  %46 = load i64, ptr %6, align 8, !tbaa !16
  %47 = sub i64 %46, %1
  call void @llvm.memmove.p0.p0.i64(ptr nonnull align 1 %45, ptr align 1 %44, i64 %47, i1 false)
  %48 = load ptr, ptr %11, align 8, !tbaa !12
  %49 = add i64 %1, %21
  %50 = getelementptr inbounds nuw i8, ptr %48, i64 %49
  %51 = load i8, ptr %50, align 1, !tbaa !4
  %52 = getelementptr inbounds nuw i8, ptr %48, i64 %1
  %53 = add nuw nsw i32 %15, 1
  %54 = zext nneg i32 %53 to i64
  %55 = call i32 @vsnprintf(ptr noundef %52, i64 noundef %54, ptr noundef %2, ptr noundef %3) #25
  %56 = load ptr, ptr %11, align 8, !tbaa !12
  %57 = getelementptr inbounds nuw i8, ptr %56, i64 %49
  store i8 %51, ptr %57, align 1, !tbaa !4
  %.not38 = icmp eq i32 %55, %15
  br i1 %.not38, label %59, label %58

58:                                               ; preds = %strbuf_grow.exit
  call void (ptr, i32, ptr, ...) @BUG_fl(ptr noundef nonnull @.str.4, i32 noundef 294, ptr noundef nonnull @.str.5) #24
  unreachable

59:                                               ; preds = %strbuf_grow.exit
  %60 = load i64, ptr %6, align 8, !tbaa !16
  %61 = add i64 %60, %21
  %62 = load i64, ptr %0, align 8, !tbaa !15
  %spec.select.i = call i64 @llvm.usub.sat.i64(i64 %62, i64 1)
  %63 = icmp ugt i64 %61, %spec.select.i
  br i1 %63, label %64, label %65

64:                                               ; preds = %59
  call void (ptr, i32, ptr, ...) @BUG_fl(ptr noundef nonnull @.str.28, i32 noundef 167, ptr noundef nonnull @.str.29) #24
  unreachable

65:                                               ; preds = %59
  store i64 %61, ptr %6, align 8, !tbaa !16
  %66 = load ptr, ptr %11, align 8, !tbaa !12
  %.not9.i = icmp eq ptr %66, @strbuf_slopbuf
  br i1 %.not9.i, label %strbuf_setlen.exit, label %67

67:                                               ; preds = %65
  %68 = getelementptr inbounds nuw i8, ptr %66, i64 %61
  store i8 0, ptr %68, align 1, !tbaa !4
  br label %strbuf_setlen.exit

strbuf_setlen.exit:                               ; preds = %67, %65, %19
  call void @llvm.lifetime.end.p0(i64 24, ptr nonnull %5) #25
  ret void
}